gplink-0.13.7 beta
Copyright (c) 1998-2005 gputils project
Listing File Generated: 7-9-2011  23:53:13
 
 
Address  Value    Disassembly              Source
-------  -----    -----------              ------
                                           ;--------------------------------------------------------
                                           ; File Created by SDCC : free open source ANSI-C Compiler
                                           ; Version 2.9.0 #5416 (Feb  3 2010) (UNIX)
                                           ; This file was generated Sat Jul  9 23:53:13 2011
                                           ;--------------------------------------------------------
                                           ; PIC port for the 14-bit core
                                           ;--------------------------------------------------------
                                           	.file	"main.c"
                                           	list	p=16f877a
                                           	radix dec
                                           	include "p16f877a.inc"
                                                   LIST
                                           ; P16F877A.INC  Standard Header File, Version 1.00    Microchip Technology, Inc.
                                                   NOLIST
                                           ;--------------------------------------------------------
                                           ; config word 
                                           ;--------------------------------------------------------
                                           	__config 0x3f32
                                           ;--------------------------------------------------------
                                           ; external declarations
                                           ;--------------------------------------------------------
                                           	extern	_ADCON0_bits
                                           	extern	_ADCON1_bits
                                           	extern	_CCP1CON_bits
                                           	extern	_CCP2CON_bits
                                           	extern	_CMCON_bits
                                           	extern	_CVRCON_bits
                                           	extern	_EECON1_bits
                                           	extern	_INTCON_bits
                                           	extern	_OPTION_REG_bits
                                           	extern	_PCON_bits
                                           	extern	_PIE1_bits
                                           	extern	_PIE2_bits
                                           	extern	_PIR1_bits
                                           	extern	_PIR2_bits
                                           	extern	_PORTA_bits
                                           	extern	_PORTB_bits
                                           	extern	_PORTC_bits
                                           	extern	_PORTD_bits
                                           	extern	_PORTE_bits
                                           	extern	_RCSTA_bits
                                           	extern	_SSPCON_bits
                                           	extern	_SSPCON2_bits
                                           	extern	_SSPSTAT_bits
                                           	extern	_STATUS_bits
                                           	extern	_T1CON_bits
                                           	extern	_T2CON_bits
                                           	extern	_TRISA_bits
                                           	extern	_TRISB_bits
                                           	extern	_TRISC_bits
                                           	extern	_TRISD_bits
                                           	extern	_TRISE_bits
                                           	extern	_TXSTA_bits
                                           	extern	_INDF
                                           	extern	_TMR0
                                           	extern	_PCL
                                           	extern	_STATUS
                                           	extern	_FSR
                                           	extern	_PORTA
                                           	extern	_PORTB
                                           	extern	_PORTC
                                           	extern	_PORTD
                                           	extern	_PORTE
                                           	extern	_PCLATH
                                           	extern	_INTCON
                                           	extern	_PIR1
                                           	extern	_PIR2
                                           	extern	_TMR1L
                                           	extern	_TMR1H
                                           	extern	_T1CON
                                           	extern	_TMR2
                                           	extern	_T2CON
                                           	extern	_SSPBUF
                                           	extern	_SSPCON
                                           	extern	_CCPR1L
                                           	extern	_CCPR1H
                                           	extern	_CCP1CON
                                           	extern	_RCSTA
                                           	extern	_TXREG
                                           	extern	_RCREG
                                           	extern	_CCPR2L
                                           	extern	_CCPR2H
                                           	extern	_CCP2CON
                                           	extern	_ADRESH
                                           	extern	_ADCON0
                                           	extern	_OPTION_REG
                                           	extern	_TRISA
                                           	extern	_TRISB
                                           	extern	_TRISC
                                           	extern	_TRISD
                                           	extern	_TRISE
                                           	extern	_PIE1
                                           	extern	_PIE2
                                           	extern	_PCON
                                           	extern	_SSPCON2
                                           	extern	_PR2
                                           	extern	_SSPADD
                                           	extern	_SSPSTAT
                                           	extern	_TXSTA
                                           	extern	_SPBRG
                                           	extern	_CMCON
                                           	extern	_CVRCON
                                           	extern	_ADRESL
                                           	extern	_ADCON1
                                           	extern	_EEDATA
                                           	extern	_EEADR
                                           	extern	_EEDATH
                                           	extern	_EEADRH
                                           	extern	_EECON1
                                           	extern	_EECON2
                                           	extern	___sdcc_saved_fsr
                                           	extern	__sdcc_gsinit_startup
                                           ;--------------------------------------------------------
                                           ; global declarations
                                           ;--------------------------------------------------------
                                           	global	_isr_vector0
                                           	global	_main
                                           	global	_count_20ms
                                           
                                           	global PSAVE
                                           	global SSAVE
                                           	global WSAVE
                                           	global STK12
                                           	global STK11
                                           	global STK10
                                           	global STK09
                                           	global STK08
                                           	global STK07
                                           	global STK06
                                           	global STK05
                                           	global STK04
                                           	global STK03
                                           	global STK02
                                           	global STK01
                                           	global STK00
                                           
                                           sharebank udata_ovr 0x0070
                                           PSAVE	res 1
                                           SSAVE	res 1
                                           WSAVE	res 1
                                           STK12	res 1
                                           STK11	res 1
                                           STK10	res 1
                                           STK09	res 1
                                           STK08	res 1
                                           STK07	res 1
                                           STK06	res 1
                                           STK05	res 1
                                           STK04	res 1
                                           STK03	res 1
                                           STK02	res 1
                                           STK01	res 1
                                           STK00	res 1
                                           
                                           ;--------------------------------------------------------
                                           ; global definitions
                                           ;--------------------------------------------------------
                                           UD_main_0	udata
                                           _count_20ms	res	1
                                           
                                           ;--------------------------------------------------------
                                           ; absolute symbol definitions
                                           ;--------------------------------------------------------
                                           ;--------------------------------------------------------
                                           ; compiler-defined variables
                                           ;--------------------------------------------------------
                                           UDL_main_0	udata
                                           r0x1002	res	1
                                           ;--------------------------------------------------------
                                           ; initialized data
                                           ;--------------------------------------------------------
                                           ;--------------------------------------------------------
                                           ; overlayable items in internal ram 
                                           ;--------------------------------------------------------
                                           ;	udata_ovr
                                           ;--------------------------------------------------------
                                           ; reset vector 
                                           ;--------------------------------------------------------
                                           STARTUP	code 0x0000
000000   0000     nop                      	nop
000001   118a     bcf	0xa, 0x3             	pagesel __sdcc_gsinit_startup
000002   120a     bcf	0xa, 0x4             
000003   282b     goto	0x2b                	goto	__sdcc_gsinit_startup
                                           ;--------------------------------------------------------
                                           ; interrupt and initialization code
                                           ;--------------------------------------------------------
                                           c_interrupt	code	0x4
                                           __sdcc_interrupt
                                           ;***
                                           ;  pBlock Stats: dbName = I
                                           ;***
                                           ;entry:  _isr_vector0	;Function start
                                           ; 0 exit points
                                           ;; Starting pCode block
                                           ;; gen.c:2261:resultRemat *{*
                                           ;; gen.c:2597:genLabel *{*
                                           ;; ***	genLabel  2600
                                           ;; gen.c:2261:resultRemat *{*
                                           ;; gen.c:2283:genFunction *{*
                                           ;; ***	genFunction  2285 curr label offset=0previous max_key=0 
                                           _isr_vector0	;Function start
                                           ; 0 exit points
                                           ; >>> gen.c:2340:genFunction
                                           ;; BANKOPT1 BANKSEL dropped; WSAVE present in all of (null)'s banks
                                           	.line	64; "main.c"	void isr_vector0() interrupt 0 {
000004   00f2     movwf	0x72               	MOVWF	WSAVE
                                           ; >>> gen.c:2341:genFunction
                                           ;; BANKOPT1 BANKSEL dropped; STATUS present in all of (null)'s banks
000005   0e03     swapf	0x3, w             	SWAPF	STATUS,W
                                           ; >>> gen.c:2346:genFunction
                                           ;; BANKOPT1 BANKSEL dropped; STATUS present in all of (null)'s banks
000006   0183     clrf	0x3                 	CLRF	STATUS
                                           ; >>> gen.c:2347:genFunction
                                           ;; BANKOPT1 BANKSEL dropped; SSAVE present in all of (null)'s banks
000007   00f1     movwf	0x71               	MOVWF	SSAVE
                                           ; >>> gen.c:2349:genFunction
                                           ;; BANKOPT1 BANKSEL dropped; PCLATH present in all of (null)'s banks
000008   080a     movf	0xa, w              	MOVF	PCLATH,W
                                           ; >>> gen.c:2351:genFunction
                                           ;; BANKOPT1 BANKSEL dropped; PCLATH present in all of (null)'s banks
000009   018a     clrf	0xa                 	CLRF	PCLATH
                                           ; >>> gen.c:2352:genFunction
                                           ;; BANKOPT1 BANKSEL dropped; PSAVE present in all of (null)'s banks
00000a   00f0     movwf	0x70               	MOVWF	PSAVE
                                           ; >>> gen.c:2354:genFunction
                                           ;; BANKOPT1 BANKSEL dropped; FSR present in all of (null)'s banks
00000b   0804     movf	0x4, w              	MOVF	FSR,W
                                           ; >>> gen.c:2355:genFunction
00000c   1283     bcf	0x3, 0x5             	BANKSEL	___sdcc_saved_fsr
00000d   1303     bcf	0x3, 0x6             
00000e   00ae     movwf	0x2e               	MOVWF	___sdcc_saved_fsr
                                           ;; gen.c:2261:resultRemat *{*
                                           ;; gen.c:2261:resultRemat *{*
                                           ;; gen.c:6117:genPointerSet *{*
                                           ;; ***	genPointerSet  6118
                                           ;; gen.c:5945:genNearPointerSet *{*
                                           ;; ***	genNearPointerSet  5946
                                           ;;	641
                                           ;;	aopForRemat 425
                                           ;;	446: rname _INTCON_bits, val 0, const = 0
                                           ;; ***	genNearPointerSet  5963
                                           ;;	858: aopGet AOP_PCODE type PO_IMMEDIATE
                                           ;;	_INTCON_bits
                                           ;; 	line = 5965 result AOP_PCODE=_INTCON_bits, size=2, left -=-, size=0, right AOP_LIT=0x00, size=1
                                           ;; gen.c:5694:genPackBits *{*
                                           ;; ***	genPackBits  5695
                                           ;;	858: aopGet AOP_PCODE type PO_IMMEDIATE
                                           ;;	_INTCON_bits
                                           ; >>> gen.c:5720:genPackBits
                                           	.line	66; "main.c"	GIE=0;
00000f   1283     bcf	0x3, 0x5             	BANKSEL	_INTCON_bits
000010   1303     bcf	0x3, 0x6             
000011   138b     bcf	0xb, 0x7             	BCF	_INTCON_bits,7
                                           ;; gen.c:2261:resultRemat *{*
                                           ;; gen.c:2261:resultRemat *{*
                                           ;; gen.c:5608:genPointerGet *{*
                                           ;; ***	genPointerGet  5609
                                           ;; gen.c:5397:genNearPointerGet *{*
                                           ;; ***	genNearPointerGet  5398
                                           ;;	641
                                           ;;	aopForRemat 425
                                           ;;	446: rname _INTCON_bits, val 0, const = 0
                                           ;; ***	genNearPointerGet  5414
                                           ;;	721 register type nRegs=1
                                           ;; gen.c:3504:ifxForOp *{*
                                           ;; ***	ifxForOp  3506
                                           ;; gen.c:5240:genUnpackBits *{*
                                           ;; ***	genUnpackBits  5241
                                           ;;	858: aopGet AOP_PCODE type PO_IMMEDIATE
                                           ;;	_INTCON_bits
                                           ; >>> gen.c:5257:genUnpackBits
                                           ;; BANKOPT2 BANKSEL dropped; _INTCON_bits present in same bank as _INTCON_bits
                                           	.line	68; "main.c"	if(T0IF){
000012   1d0b     btfss	0xb, 0x2           	BTFSS	_INTCON_bits,2
                                           ; >>> gen.c:5258:genUnpackBits
                                           ;; ***	popGetLabel  key=2, label offset 4
000013   281c     goto	0x1c                	GOTO	_00106_DS_
                                           ;; gen.c:2261:resultRemat *{*
                                           ;; gen.c:2261:resultRemat *{*
                                           ;; ***	genPlus  547
                                           ;; genarith.c:548:genPlus *{*
                                           ;; ***	aopForSym 350
                                           ;;	361 sym->rname = _count_20ms, size = 1
                                           ;; 	line = 554 result AOP_DIR=_count_20ms, size=1, left AOP_DIR=_count_20ms, size=1, right AOP_LIT=0x01, size=1
                                           ;; ***	pic14_getDataSize  1426
                                           ;; genarith.c:142:genPlusIncr *{*
                                           ;; ***	genPlusIncr  144
                                           ;; 	result AOP_DIR, left AOP_DIR, right AOP_LIT
                                           ;; 	genPlusIncr  156
                                           ; >>> genarith.c:168:genPlusIncr
                                           ;;	1013
                                           ;;	1029  _count_20ms   offset=0
                                           	.line	70; "main.c"	count_20ms++;
000014   1283     bcf	0x3, 0x5             	BANKSEL	_count_20ms
000015   1303     bcf	0x3, 0x6             
000016   0aac     incf	0x2c, f             	INCF	_count_20ms,F
                                           ;; gen.c:2261:resultRemat *{*
                                           ;; gen.c:6332:genAssign *{*
                                           ;; ***	genAssign  6333
                                           ;; ***	aopForSym 350
                                           ;;	361 sym->rname = _TMR0, size = 1
                                           ;; 	line = 6342 result AOP_DIR=_TMR0, size=1, left -=-, size=0, right AOP_LIT=0x9c, size=1
                                           ;; ***	genAssign  6434
                                           ; >>> gen.c:6439:genAssign
                                           	.line	71; "main.c"	TMR0=256-100;
000017   309c     movlw	0x9c               	MOVLW	0x9c
                                           ; >>> gen.c:6441:genAssign
                                           ;;	1013
                                           ;;	1029  _TMR0   offset=0
000018   1283     bcf	0x3, 0x5             	BANKSEL	_TMR0
000019   1303     bcf	0x3, 0x6             
00001a   0081     movwf	0x1                	MOVWF	_TMR0
                                           ;; gen.c:2261:resultRemat *{*
                                           ;; gen.c:2261:resultRemat *{*
                                           ;; gen.c:6117:genPointerSet *{*
                                           ;; ***	genPointerSet  6118
                                           ;; gen.c:5945:genNearPointerSet *{*
                                           ;; ***	genNearPointerSet  5946
                                           ;;	641
                                           ;;	aopForRemat 425
                                           ;;	446: rname _INTCON_bits, val 0, const = 0
                                           ;; ***	genNearPointerSet  5963
                                           ;;	858: aopGet AOP_PCODE type PO_IMMEDIATE
                                           ;;	_INTCON_bits
                                           ;; 	line = 5965 result AOP_PCODE=_INTCON_bits, size=2, left -=-, size=0, right AOP_LIT=0x00, size=1
                                           ;; gen.c:5694:genPackBits *{*
                                           ;; ***	genPackBits  5695
                                           ;;	858: aopGet AOP_PCODE type PO_IMMEDIATE
                                           ;;	_INTCON_bits
                                           ; >>> gen.c:5720:genPackBits
                                           ;; BANKOPT2 BANKSEL dropped; _INTCON_bits present in same bank as _TMR0
                                           	.line	72; "main.c"	T0IF=0; // Restart interrupt flag
00001b   110b     bcf	0xb, 0x2             	BCF	_INTCON_bits,2
                                           ;; gen.c:2261:resultRemat *{*
                                           ;; gen.c:2597:genLabel *{*
                                           ;; ***	genLabel  2600
                                           ;; gen.c:2261:resultRemat *{*
                                           ;; gen.c:2261:resultRemat *{*
                                           ;; gen.c:6117:genPointerSet *{*
                                           ;; ***	genPointerSet  6118
                                           ;; gen.c:5945:genNearPointerSet *{*
                                           ;; ***	genNearPointerSet  5946
                                           ;;	641
                                           ;;	aopForRemat 425
                                           ;;	446: rname _INTCON_bits, val 0, const = 0
                                           ;; ***	genNearPointerSet  5963
                                           ;;	858: aopGet AOP_PCODE type PO_IMMEDIATE
                                           ;;	_INTCON_bits
                                           ;; 	line = 5965 result AOP_PCODE=_INTCON_bits, size=2, left -=-, size=0, right AOP_LIT=0x01, size=1
                                           ;; gen.c:5694:genPackBits *{*
                                           ;; ***	genPackBits  5695
                                           ;;	858: aopGet AOP_PCODE type PO_IMMEDIATE
                                           ;;	_INTCON_bits
                                           ; >>> gen.c:5720:genPackBits
                                           ;; BANKOPT3 drop assumptions: PCI with label or call found
                                           _00106_DS_
                                           	.line	80; "main.c"	GIE=1;
00001c   1283     bcf	0x3, 0x5             	BANKSEL	_INTCON_bits
00001d   1303     bcf	0x3, 0x6             
00001e   178b     bsf	0xb, 0x7             	BSF	_INTCON_bits,7
                                           ;; gen.c:2261:resultRemat *{*
                                           ;; gen.c:2597:genLabel *{*
                                           ;; ***	genLabel  2600
                                           ;; gen.c:2261:resultRemat *{*
                                           ;; gen.c:2435:genEndFunction *{*
                                           ;; ***	genEndFunction  2437
                                           ; >>> gen.c:2508:genEndFunction
00001f   1283     bcf	0x3, 0x5             	BANKSEL	___sdcc_saved_fsr
000020   1303     bcf	0x3, 0x6             
000021   082e     movf	0x2e, w             	MOVF	___sdcc_saved_fsr,W
                                           ; >>> gen.c:2509:genEndFunction
                                           ;; BANKOPT1 BANKSEL dropped; FSR present in all of ___sdcc_saved_fsr's banks
000022   0084     movwf	0x4                	MOVWF	FSR
                                           ; >>> gen.c:2511:genEndFunction
                                           ;; BANKOPT1 BANKSEL dropped; PSAVE present in all of ___sdcc_saved_fsr's banks
000023   0870     movf	0x70, w             	MOVF	PSAVE,W
                                           ; >>> gen.c:2512:genEndFunction
                                           ;; BANKOPT1 BANKSEL dropped; PCLATH present in all of ___sdcc_saved_fsr's banks
000024   008a     movwf	0xa                	MOVWF	PCLATH
                                           ; >>> gen.c:2513:genEndFunction
                                           ;; BANKOPT1 BANKSEL dropped; STATUS present in all of ___sdcc_saved_fsr's banks
000025   0183     clrf	0x3                 	CLRF	STATUS
                                           ; >>> gen.c:2515:genEndFunction
                                           ;; BANKOPT1 BANKSEL dropped; SSAVE present in all of ___sdcc_saved_fsr's banks
000026   0e71     swapf	0x71, w            	SWAPF	SSAVE,W
                                           ; >>> gen.c:2516:genEndFunction
                                           ;; BANKOPT1 BANKSEL dropped; STATUS present in all of ___sdcc_saved_fsr's banks
000027   0083     movwf	0x3                	MOVWF	STATUS
                                           ; >>> gen.c:2517:genEndFunction
                                           ;; BANKOPT1 BANKSEL dropped; WSAVE present in all of ___sdcc_saved_fsr's banks
000028   0ef2     swapf	0x72, f            	SWAPF	WSAVE,F
                                           ; >>> gen.c:2518:genEndFunction
                                           ;; BANKOPT1 BANKSEL dropped; WSAVE present in all of ___sdcc_saved_fsr's banks
000029   0e72     swapf	0x72, w            	SWAPF	WSAVE,W
                                           ;; BANKOPT3 drop assumptions: PCI with label or call found
                                           END_OF_INTERRUPT
00002a   0009     retfie                   	RETFIE	
                                           ;; gen.c:6803:genpic14Code *{*
                                           
                                           ;--------------------------------------------------------
                                           ; code
                                           ;--------------------------------------------------------
                                           code_main	code
                                           ;***
                                           ;  pBlock Stats: dbName = M
                                           ;***
                                           ;entry:  _main	;Function start
                                           ; 2 exit points
                                           ;has an exit
                                           ;1 compiler assigned register :
                                           ;   r0x1002
                                           ;; Starting pCode block
                                           ;; gen.c:2261:resultRemat *{*
                                           ;; gen.c:2597:genLabel *{*
                                           ;; ***	genLabel  2600
                                           ;; gen.c:2261:resultRemat *{*
                                           ;; gen.c:2283:genFunction *{*
                                           ;; ***	genFunction  2285 curr label offset=4previous max_key=2 
                                           _main	;Function start
                                           ; 2 exit points
                                           ;; gen.c:2261:resultRemat *{*
                                           ;; gen.c:6332:genAssign *{*
                                           ;; ***	genAssign  6333
                                           ;;	721 register type nRegs=1
                                           ;; 	line = 6342 result AOP_REG=r0x1049, size=1, left -=-, size=0, right AOP_LIT=0x00, size=1
                                           ;; ***	genAssign  6434
                                           ; >>> gen.c:6443:genAssign
                                           ;;	1109 rIdx = r0x1049 
                                           	.line	99; "main.c"	u8 flagk=0;
0000f3   1283     bcf	0x3, 0x5             	BANKSEL	r0x1002
0000f4   1303     bcf	0x3, 0x6             
0000f5   01ad     clrf	0x2d                	CLRF	r0x1002
                                           ;; gen.c:2261:resultRemat *{*
                                           ;; gen.c:6332:genAssign *{*
                                           ;; ***	genAssign  6333
                                           ;; ***	aopForSym 350
                                           ;;	361 sym->rname = _TRISB, size = 1
                                           ;; 	line = 6342 result AOP_DIR=_TRISB, size=1, left -=-, size=0, right AOP_LIT=0x00, size=1
                                           ;; ***	genAssign  6434
                                           ; >>> gen.c:6443:genAssign
                                           ;;	1013
                                           ;;	1029  _TRISB   offset=0
                                           	.line	102; "main.c"	TRISB=0;
0000f6   1683     bsf	0x3, 0x5             	BANKSEL	_TRISB
0000f7   1303     bcf	0x3, 0x6             
0000f8   0186     clrf	0x6                 	CLRF	_TRISB
                                           ;; gen.c:2261:resultRemat *{*
                                           ;; gen.c:6332:genAssign *{*
                                           ;; ***	genAssign  6333
                                           ;; ***	aopForSym 350
                                           ;;	361 sym->rname = _count_20ms, size = 1
                                           ;; 	line = 6342 result AOP_DIR=_count_20ms, size=1, left -=-, size=0, right AOP_LIT=0x00, size=1
                                           ;; ***	genAssign  6434
                                           ; >>> gen.c:6443:genAssign
                                           ;;	1013
                                           ;;	1029  _count_20ms   offset=0
                                           	.line	103; "main.c"	count_20ms=0;
0000f9   1283     bcf	0x3, 0x5             	BANKSEL	_count_20ms
0000fa   1303     bcf	0x3, 0x6             
0000fb   01ac     clrf	0x2c                	CLRF	_count_20ms
                                           ;; gen.c:2261:resultRemat *{*
                                           ;; gen.c:3504:ifxForOp *{*
                                           ;; ***	ifxForOp  3506
                                           ;; gen.c:3981:genOr *{*
                                           ;; ***	genOr  3982
                                           ;; ***	aopForSym 350
                                           ;;	361 sym->rname = _OPTION_REG, size = 1
                                           ;;	606
                                           ;; 	line = 3988 result AOP_DIR=_OPTION_REG, size=1, left AOP_DIR=_OPTION_REG, size=1, right AOP_LIT=0xd7, size=1
                                           ;; 	line = 4013 result AOP_DIR=_OPTION_REG, size=1, left AOP_DIR=_OPTION_REG, size=1, right AOP_LIT=0xd7, size=1
                                           ; >>> gen.c:4148:genOr
                                           	.line	114; "main.c"	OPTION_REG|=0xD7; // TIMER0 clock 1us, PRESCALER=1 
0000fc   30d7     movlw	0xd7               	MOVLW	0xd7
                                           ; >>> gen.c:4150:genOr
                                           ;;	1013
                                           ;;	1029  _OPTION_REG   offset=0
0000fd   1683     bsf	0x3, 0x5             	BANKSEL	_OPTION_REG
0000fe   1303     bcf	0x3, 0x6             
0000ff   0481     iorwf	0x1, f             	IORWF	_OPTION_REG,F
                                           ;; gen.c:2261:resultRemat *{*
                                           ;; gen.c:6332:genAssign *{*
                                           ;; ***	genAssign  6333
                                           ;; ***	aopForSym 350
                                           ;;	361 sym->rname = _TMR0, size = 1
                                           ;; 	line = 6342 result AOP_DIR=_TMR0, size=1, left -=-, size=0, right AOP_LIT=0x9c, size=1
                                           ;; ***	genAssign  6434
                                           ; >>> gen.c:6439:genAssign
                                           	.line	115; "main.c"	TMR0=256-100;	  // 100 us interrupt =0.1 ms/interrupt
000100   309c     movlw	0x9c               	MOVLW	0x9c
                                           ; >>> gen.c:6441:genAssign
                                           ;;	1013
                                           ;;	1029  _TMR0   offset=0
000101   1283     bcf	0x3, 0x5             	BANKSEL	_TMR0
000102   1303     bcf	0x3, 0x6             
000103   0081     movwf	0x1                	MOVWF	_TMR0
                                           ;; gen.c:2261:resultRemat *{*
                                           ;; gen.c:2261:resultRemat *{*
                                           ;; gen.c:6117:genPointerSet *{*
                                           ;; ***	genPointerSet  6118
                                           ;; gen.c:5945:genNearPointerSet *{*
                                           ;; ***	genNearPointerSet  5946
                                           ;;	641
                                           ;;	aopForRemat 425
                                           ;;	446: rname _INTCON_bits, val 0, const = 0
                                           ;; ***	genNearPointerSet  5963
                                           ;;	858: aopGet AOP_PCODE type PO_IMMEDIATE
                                           ;;	_INTCON_bits
                                           ;; 	line = 5965 result AOP_PCODE=_INTCON_bits, size=2, left -=-, size=0, right AOP_LIT=0x00, size=1
                                           ;; gen.c:5694:genPackBits *{*
                                           ;; ***	genPackBits  5695
                                           ;;	858: aopGet AOP_PCODE type PO_IMMEDIATE
                                           ;;	_INTCON_bits
                                           ; >>> gen.c:5720:genPackBits
                                           ;; BANKOPT2 BANKSEL dropped; _INTCON_bits present in same bank as _TMR0
                                           	.line	118; "main.c"	TMR0IF=0;	                      
000104   110b     bcf	0xb, 0x2             	BCF	_INTCON_bits,2
                                           ;; gen.c:2261:resultRemat *{*
                                           ;; gen.c:2261:resultRemat *{*
                                           ;; gen.c:6117:genPointerSet *{*
                                           ;; ***	genPointerSet  6118
                                           ;; gen.c:5945:genNearPointerSet *{*
                                           ;; ***	genNearPointerSet  5946
                                           ;;	641
                                           ;;	aopForRemat 425
                                           ;;	446: rname _INTCON_bits, val 0, const = 0
                                           ;; ***	genNearPointerSet  5963
                                           ;;	858: aopGet AOP_PCODE type PO_IMMEDIATE
                                           ;;	_INTCON_bits
                                           ;; 	line = 5965 result AOP_PCODE=_INTCON_bits, size=2, left -=-, size=0, right AOP_LIT=0x01, size=1
                                           ;; gen.c:5694:genPackBits *{*
                                           ;; ***	genPackBits  5695
                                           ;;	858: aopGet AOP_PCODE type PO_IMMEDIATE
                                           ;;	_INTCON_bits
                                           ; >>> gen.c:5720:genPackBits
                                           ;; BANKOPT2 BANKSEL dropped; _INTCON_bits present in same bank as _TMR0
                                           	.line	119; "main.c"	TMR0IE=1;	  // Unmask timer interrupt
000105   168b     bsf	0xb, 0x5             	BSF	_INTCON_bits,5
                                           ;; gen.c:2261:resultRemat *{*
                                           ;; gen.c:2261:resultRemat *{*
                                           ;; gen.c:6117:genPointerSet *{*
                                           ;; ***	genPointerSet  6118
                                           ;; gen.c:5945:genNearPointerSet *{*
                                           ;; ***	genNearPointerSet  5946
                                           ;;	641
                                           ;;	aopForRemat 425
                                           ;;	446: rname _INTCON_bits, val 0, const = 0
                                           ;; ***	genNearPointerSet  5963
                                           ;;	858: aopGet AOP_PCODE type PO_IMMEDIATE
                                           ;;	_INTCON_bits
                                           ;; 	line = 5965 result AOP_PCODE=_INTCON_bits, size=2, left -=-, size=0, right AOP_LIT=0x01, size=1
                                           ;; gen.c:5694:genPackBits *{*
                                           ;; ***	genPackBits  5695
                                           ;;	858: aopGet AOP_PCODE type PO_IMMEDIATE
                                           ;;	_INTCON_bits
                                           ; >>> gen.c:5720:genPackBits
                                           ;; BANKOPT2 BANKSEL dropped; _INTCON_bits present in same bank as _TMR0
                                           	.line	120; "main.c"	GIE=1;		  // Enable all interrupt
000106   178b     bsf	0xb, 0x7             	BSF	_INTCON_bits,7
                                           ;; gen.c:2261:resultRemat *{*
                                           ;; gen.c:2597:genLabel *{*
                                           ;; ***	genLabel  2600
                                           ;; gen.c:2261:resultRemat *{*
                                           ;; gen.c:3504:ifxForOp *{*
                                           ;; ***	ifxForOp  3506
                                           ;; gen.c:3388:genCmpEq *{*
                                           ;; ***	genCmpEq  3389
                                           ;; ifx is non-null
                                           ;; ***	aopForSym 350
                                           ;;	361 sym->rname = _count_20ms, size = 1
                                           ;; 	line = 3400 result AOP_CRY=0x00, size=0, left AOP_DIR=_count_20ms, size=1, right AOP_LIT=0xc8, size=1
                                           ;; ***	mov2w  1356  offset=0
                                           ; >>> gen.c:1361:mov2w
                                           ;;	1013
                                           ;;	1029  _count_20ms   offset=0
                                           ;; BANKOPT3 drop assumptions: PCI with label or call found
                                           _00117_DS_
                                           	.line	126; "main.c"	if(count_20ms==200){
000107   1283     bcf	0x3, 0x5             	BANKSEL	_count_20ms
000108   1303     bcf	0x3, 0x6             
000109   082c     movf	0x2c, w             	MOVF	_count_20ms,W
                                           ; >>> gen.c:3452:genCmpEq
00010a   3ac8     xorlw	0xc8               	XORLW	0xc8
                                           ; >>> gen.c:3454:genCmpEq
                                           ;; BANKOPT1 BANKSEL dropped; STATUS present in all of _count_20ms's banks
00010b   1d03     btfss	0x3, 0x2           	BTFSS	STATUS,2
                                           ; >>> gen.c:3456:genCmpEq
                                           ;; ***	popGetLabel  key=2, label offset 10
00010c   2912     goto	0x112               	GOTO	_00112_DS_
                                           ;; gen.c:2261:resultRemat *{*
                                           ;; gen.c:2261:resultRemat *{*
                                           ;; gen.c:6332:genAssign *{*
                                           ;; ***	genAssign  6333
                                           ;; ***	aopForSym 350
                                           ;;	361 sym->rname = _count_20ms, size = 1
                                           ;; 	line = 6342 result AOP_DIR=_count_20ms, size=1, left -=-, size=0, right AOP_LIT=0x00, size=1
                                           ;; ***	genAssign  6434
                                           ; >>> gen.c:6443:genAssign
                                           ;;	1013
                                           ;;	1029  _count_20ms   offset=0
                                           ;; BANKOPT2 BANKSEL dropped; _count_20ms present in same bank as _count_20ms
                                           	.line	128; "main.c"	count_20ms=0;  // Reset counter when it reaches 200 ticks ==> 200 ticks *0.1 ms/ticks=20ms
00010d   01ac     clrf	0x2c                	CLRF	_count_20ms
                                           ;; gen.c:2261:resultRemat *{*
                                           ;; gen.c:3504:ifxForOp *{*
                                           ;; ***	ifxForOp  3506
                                           ;; NULL :(	3526
                                           ;; gen.c:4227:genXor *{*
                                           ;; ***	genXor  4228
                                           ;;	721 register type nRegs=1
                                           ;;	606
                                           ; >>> gen.c:4345:genXor
                                           	.line	129; "main.c"	flagk=flagk^1;
00010e   3001     movlw	0x1                	MOVLW	0x01
                                           ; >>> gen.c:4346:genXor
                                           ;;	1109 rIdx = r0x1049 
00010f   1283     bcf	0x3, 0x5             	BANKSEL	r0x1002
000110   1303     bcf	0x3, 0x6             
000111   06ad     xorwf	0x2d, f            	XORWF	r0x1002,F
                                           ;; gen.c:2261:resultRemat *{*
                                           ;; gen.c:2597:genLabel *{*
                                           ;; ***	genLabel  2600
                                           ;; gen.c:2261:resultRemat *{*
                                           ;; gen.c:3504:ifxForOp *{*
                                           ;; ***	ifxForOp  3506
                                           ;; gen.c:3388:genCmpEq *{*
                                           ;; ***	genCmpEq  3389
                                           ;; ifx is non-null
                                           ;;	721 register type nRegs=1
                                           ;; 	line = 3400 result AOP_CRY=0x00, size=0, left AOP_REG=r0x1049, size=1, right AOP_LIT=0x01, size=1
                                           ;; ***	mov2w  1356  offset=0
                                           ; >>> gen.c:1361:mov2w
                                           ;;	1109 rIdx = r0x1049 
                                           ;; BANKOPT3 drop assumptions: PCI with label or call found
                                           _00112_DS_
                                           	.line	134; "main.c"	if(flagk==1){
000112   1283     bcf	0x3, 0x5             	BANKSEL	r0x1002
000113   1303     bcf	0x3, 0x6             
000114   082d     movf	0x2d, w             	MOVF	r0x1002,W
                                           ; >>> gen.c:3452:genCmpEq
000115   3a01     xorlw	0x1                	XORLW	0x01
                                           ; >>> gen.c:3454:genCmpEq
                                           ;; BANKOPT1 BANKSEL dropped; STATUS present in all of r0x1002's banks
000116   1d03     btfss	0x3, 0x2           	BTFSS	STATUS,2
                                           ; >>> gen.c:3456:genCmpEq
                                           ;; ***	popGetLabel  key=4, label offset 10
000117   291c     goto	0x11c               	GOTO	_00114_DS_
                                           ;; gen.c:2261:resultRemat *{*
                                           ;; gen.c:2261:resultRemat *{*
                                           ;; gen.c:2261:resultRemat *{*
                                           ;; gen.c:6117:genPointerSet *{*
                                           ;; ***	genPointerSet  6118
                                           ;; gen.c:5945:genNearPointerSet *{*
                                           ;; ***	genNearPointerSet  5946
                                           ;;	641
                                           ;;	aopForRemat 425
                                           ;;	446: rname _PORTB_bits, val 0, const = 0
                                           ;; ***	genNearPointerSet  5963
                                           ;;	858: aopGet AOP_PCODE type PO_IMMEDIATE
                                           ;;	_PORTB_bits
                                           ;; 	line = 5965 result AOP_PCODE=_PORTB_bits, size=2, left -=-, size=0, right AOP_LIT=0x01, size=1
                                           ;; gen.c:5694:genPackBits *{*
                                           ;; ***	genPackBits  5695
                                           ;;	858: aopGet AOP_PCODE type PO_IMMEDIATE
                                           ;;	_PORTB_bits
                                           ; >>> gen.c:5720:genPackBits
                                           	.line	135; "main.c"	RB7=1;
000118   1283     bcf	0x3, 0x5             	BANKSEL	_PORTB_bits
000119   1303     bcf	0x3, 0x6             
00011a   1786     bsf	0x6, 0x7             	BSF	_PORTB_bits,7
                                           ;; gen.c:2261:resultRemat *{*
                                           ;; gen.c:2614:genGoto *{*
                                           ; >>> gen.c:2616:genGoto
                                           ;; ***	popGetLabel  key=7, label offset 10
00011b   2907     goto	0x107               	GOTO	_00117_DS_
                                           ;; gen.c:2261:resultRemat *{*
                                           ;; gen.c:2597:genLabel *{*
                                           ;; ***	genLabel  2600
                                           ;; gen.c:2261:resultRemat *{*
                                           ;; gen.c:2261:resultRemat *{*
                                           ;; gen.c:6117:genPointerSet *{*
                                           ;; ***	genPointerSet  6118
                                           ;; gen.c:5945:genNearPointerSet *{*
                                           ;; ***	genNearPointerSet  5946
                                           ;;	641
                                           ;;	aopForRemat 425
                                           ;;	446: rname _PORTB_bits, val 0, const = 0
                                           ;; ***	genNearPointerSet  5963
                                           ;;	858: aopGet AOP_PCODE type PO_IMMEDIATE
                                           ;;	_PORTB_bits
                                           ;; 	line = 5965 result AOP_PCODE=_PORTB_bits, size=2, left -=-, size=0, right AOP_LIT=0x00, size=1
                                           ;; gen.c:5694:genPackBits *{*
                                           ;; ***	genPackBits  5695
                                           ;;	858: aopGet AOP_PCODE type PO_IMMEDIATE
                                           ;;	_PORTB_bits
                                           ; >>> gen.c:5720:genPackBits
                                           ;; BANKOPT3 drop assumptions: PCI with label or call found
                                           _00114_DS_
                                           	.line	138; "main.c"	RB7=0;
00011c   1283     bcf	0x3, 0x5             	BANKSEL	_PORTB_bits
00011d   1303     bcf	0x3, 0x6             
00011e   1386     bcf	0x6, 0x7             	BCF	_PORTB_bits,7
                                           ;; gen.c:2261:resultRemat *{*
                                           ;; gen.c:2614:genGoto *{*
                                           ; >>> gen.c:2616:genGoto
                                           ;; ***	popGetLabel  key=7, label offset 10
00011f   2907     goto	0x107               	GOTO	_00117_DS_
                                           ;; gen.c:2261:resultRemat *{*
                                           ;; gen.c:2597:genLabel *{*
                                           ;; ***	genLabel  2600
                                           ;; gen.c:2261:resultRemat *{*
                                           ;; gen.c:2435:genEndFunction *{*
                                           ;; ***	genEndFunction  2437
000120   0008     return                   	RETURN	
                                           ; exit point of _main
                                           
                                           
                                           ;	code size estimation:
                                           ;	   53+   16 =    69 instructions (  170 byte)
                                           
                                           	end
                                                   LIST
                                           ; P16F877A.INC  Standard Header File, Version 1.00    Microchip Technology, Inc.
                                                   NOLIST
                                                   LIST
                                           ; P16F877.INC  Standard Header File, Version 1.00    Microchip Technology, Inc.
                                                   NOLIST
                                                   LIST
                                           ; P16F877.INC  Standard Header File, Version 1.00    Microchip Technology, Inc.
                                                   NOLIST
